target datalayout = "e-m:e-p270:32:32-p271:32:32-p272:64:64-i64:64-i128:128-f80:128-n8:16:32:64-S128"
target triple = "x86_64-pc-linux-gnu"

%struct.H5EA_class_t = type { i32, ptr, i64, ptr, ptr, ptr, ptr, ptr, ptr, ptr, ptr }
%struct.H5EA_hdr_t = type { %struct.H5C_cache_entry_t, %struct.H5EA_create_t, i64, %struct.H5EA_stat_t, %struct.anon.1, i64, i64, i64, ptr, i64, i8, i64, i64, i8, i64, ptr, i64, ptr, i8, ptr, ptr }
%struct.H5C_cache_entry_t = type { ptr, i64, i64, ptr, i8, ptr, i8, i8, i8, i8, i32, i8, i8, i8, i8, i8, i32, ptr, i32, i32, i32, i32, i32, i8, i8, ptr, ptr, ptr, ptr, ptr, ptr, i8, i32, i8, i64, ptr, i64, i64, i32, i8, i32, i32, i8, ptr, ptr, ptr }
%struct.H5EA_create_t = type { ptr, i8, i8, i8, i8, i8, i8 }
%struct.H5EA_stat_t = type { %struct.anon, %struct.anon.0 }
%struct.anon = type { i64, i64, i64 }
%struct.anon.0 = type { i64, i64, i64, i64, i64, i64 }
%struct.anon.1 = type { i64, ptr }
%struct.H5EA_t = type { ptr, ptr }

@H5EA_init_g = global i8 0, align 1
@H5_libterm_g = external global i8, align 1
@.str = private unnamed_addr constant [98 x i8] c"generated/home/dtcxzyw/WorkSpace/Projects/compilers/llvm-opt-benchmark/bench/hdf5/hdf5/src/H5EA.c\00", align 1
@H5E_EARRAY_g = external global i64, align 8
@H5E_CANTPROTECT_g = external global i64, align 8
@.str.4 = private unnamed_addr constant [33 x i8] c"unable to protect array metadata\00", align 1
@H5E_CANTUNPROTECT_g = external global i64, align 8
@.str.6 = private unnamed_addr constant [44 x i8] c"unable to release extensible array metadata\00", align 1
@__func__.H5EA_get = private unnamed_addr constant [9 x i8] c"H5EA_get\00", align 1
@H5E_CANTSET_g = external global i64, align 8
@.str.7 = private unnamed_addr constant [40 x i8] c"can't set element to class's fill value\00", align 1

; Function Attrs: nounwind uwtable
define i32 @H5EA_get(ptr noundef %0, i64 noundef %1, ptr noundef %2) #0 {
  %4 = alloca i32, align 4
  %5 = alloca ptr, align 8
  %6 = alloca i64, align 8
  %7 = alloca ptr, align 8
  %8 = alloca ptr, align 8
  %9 = alloca ptr, align 8
  %10 = alloca ptr, align 8
  %11 = alloca i32, align 4
  %12 = alloca i8, align 1
  %13 = alloca ptr, align 8
  %14 = alloca i64, align 8
  %15 = alloca i32, align 4
  store ptr %0, ptr %5, align 8, !tbaa !11
  store i64 %1, ptr %6, align 8, !tbaa !17
  store ptr %2, ptr %7, align 8, !tbaa !10
  call void @llvm.lifetime.start.p0(i64 8, ptr %8) #6
  %16 = load ptr, ptr %5, align 8, !tbaa !11
  %17 = getelementptr inbounds nuw %struct.H5EA_t, ptr %16, i32 0, i32 0
  %18 = load ptr, ptr %17, align 8, !tbaa !40
  store ptr %18, ptr %8, align 8, !tbaa !19
  call void @llvm.lifetime.start.p0(i64 8, ptr %9) #6
  store ptr null, ptr %9, align 8, !tbaa !10
  call void @llvm.lifetime.start.p0(i64 8, ptr %10) #6
  store ptr null, ptr %10, align 8, !tbaa !10
  call void @llvm.lifetime.start.p0(i64 4, ptr %11) #6
  store i32 0, ptr %11, align 4, !tbaa !43
  call void @llvm.lifetime.start.p0(i64 1, ptr %12) #6
  store i8 0, ptr %12, align 1, !tbaa !13
  %19 = load i8, ptr @H5EA_init_g, align 1, !tbaa !13, !range !15, !noundef !16
  %20 = trunc i8 %19 to i1
  br i1 %20, label %25, label %21

21:                                               ; preds = %3
  %22 = load i8, ptr @H5_libterm_g, align 1, !tbaa !13, !range !15, !noundef !16
  %23 = trunc i8 %22 to i1
  %24 = xor i1 %23, true
  br label %25

25:                                               ; preds = %21, %3
  %26 = phi i1 [ false, %3 ], [ %24, %21 ]
  %27 = xor i1 %26, true
  %28 = xor i1 %27, true
  %29 = zext i1 %28 to i32
  %30 = sext i32 %29 to i64
  %31 = call i64 @llvm.expect.i64(i64 %30, i64 0)
  %32 = icmp ne i64 %31, 0
  br i1 %32, label %33, label %34

33:                                               ; preds = %25
  store i8 1, ptr @H5EA_init_g, align 1, !tbaa !13
  br label %34

34:                                               ; preds = %33, %25
  %35 = load i8, ptr @H5EA_init_g, align 1, !tbaa !13, !range !15, !noundef !16
  %36 = trunc i8 %35 to i1
  br i1 %36, label %41, label %37

37:                                               ; preds = %34
  %38 = load i8, ptr @H5_libterm_g, align 1, !tbaa !13, !range !15, !noundef !16
  %39 = trunc i8 %38 to i1
  %40 = xor i1 %39, true
  br label %41

41:                                               ; preds = %37, %34
  %42 = phi i1 [ true, %34 ], [ %40, %37 ]
  %43 = xor i1 %42, true
  %44 = xor i1 %43, true
  %45 = zext i1 %44 to i32
  %46 = sext i32 %45 to i64
  %47 = call i64 @llvm.expect.i64(i64 %46, i64 1)
  %48 = icmp ne i64 %47, 0
  br i1 %48, label %49, label %197

49:                                               ; preds = %41
  %50 = load i64, ptr %6, align 8, !tbaa !17
  %51 = load ptr, ptr %8, align 8, !tbaa !19
  %52 = getelementptr inbounds nuw %struct.H5EA_hdr_t, ptr %51, i32 0, i32 3
  %53 = getelementptr inbounds nuw %struct.H5EA_stat_t, ptr %52, i32 0, i32 1
  %54 = getelementptr inbounds nuw %struct.anon.0, ptr %53, i32 0, i32 4
  %55 = load i64, ptr %54, align 8, !tbaa !47
  %56 = icmp uge i64 %50, %55
  br i1 %56, label %57, label %87

57:                                               ; preds = %49
  %58 = load ptr, ptr %8, align 8, !tbaa !19
  %59 = getelementptr inbounds nuw %struct.H5EA_hdr_t, ptr %58, i32 0, i32 1
  %60 = getelementptr inbounds nuw %struct.H5EA_create_t, ptr %59, i32 0, i32 0
  %61 = load ptr, ptr %60, align 8, !tbaa !50
  %62 = getelementptr inbounds nuw %struct.H5EA_class_t, ptr %61, i32 0, i32 5
  %63 = load ptr, ptr %62, align 8, !tbaa !93
  %64 = load ptr, ptr %7, align 8, !tbaa !10
  %65 = call i32 %63(ptr noundef %64, i64 noundef 1)
  %66 = icmp slt i32 %65, 0
  br i1 %66, label %67, label %86

67:                                               ; preds = %57
  br label %68

68:                                               ; preds = %67
  br label %69

69:                                               ; preds = %68
  br label %70

70:                                               ; preds = %69
  %71 = load i64, ptr @H5E_EARRAY_g, align 8, !tbaa !17
  %72 = load i64, ptr @H5E_CANTSET_g, align 8, !tbaa !17
  %73 = call i32 (ptr, ptr, i32, i64, i64, ptr, ...) @H5E_printf_stack(ptr noundef @.str, ptr noundef @__func__.H5EA_get, i32 noundef 730, i64 noundef %71, i64 noundef %72, ptr noundef @.str.7)
  br label %74

74:                                               ; preds = %70
  br label %75

75:                                               ; preds = %74
  store i8 1, ptr %12, align 1, !tbaa !13
  %76 = load i8, ptr %12, align 1, !tbaa !13, !range !15, !noundef !16
  %77 = trunc i8 %76 to i1
  %78 = zext i1 %77 to i8
  store i8 %78, ptr %12, align 1, !tbaa !13
  br label %79

79:                                               ; preds = %75
  br label %80

80:                                               ; preds = %79
  br label %81

81:                                               ; preds = %80
  store i32 -1, ptr %11, align 4, !tbaa !43
  br label %172

82:                                               ; No predecessors!
  br label %83

83:                                               ; preds = %82
  br label %84

84:                                               ; preds = %83
  br label %85

85:                                               ; preds = %84
  br label %86

86:                                               ; preds = %85, %57
  br label %171

87:                                               ; preds = %49
  call void @llvm.lifetime.start.p0(i64 8, ptr %13) #6
  call void @llvm.lifetime.start.p0(i64 8, ptr %14) #6
  %88 = load ptr, ptr %5, align 8, !tbaa !11
  %89 = getelementptr inbounds nuw %struct.H5EA_t, ptr %88, i32 0, i32 1
  %90 = load ptr, ptr %89, align 8, !tbaa !42
  %91 = load ptr, ptr %8, align 8, !tbaa !19
  %92 = getelementptr inbounds nuw %struct.H5EA_hdr_t, ptr %91, i32 0, i32 8
  store ptr %90, ptr %92, align 8, !tbaa !44
  %93 = load ptr, ptr %5, align 8, !tbaa !11
  %94 = load i64, ptr %6, align 8, !tbaa !17
  %95 = call i32 @H5EA__lookup_elmt(ptr noundef %93, i64 noundef %94, i1 noundef zeroext false, i32 noundef 128, ptr noundef %9, ptr noundef %13, ptr noundef %14, ptr noundef %10)
  %96 = icmp slt i32 %95, 0
  br i1 %96, label %97, label %116

97:                                               ; preds = %87
  br label %98

98:                                               ; preds = %97
  br label %99

99:                                               ; preds = %98
  br label %100

100:                                              ; preds = %99
  %101 = load i64, ptr @H5E_EARRAY_g, align 8, !tbaa !17
  %102 = load i64, ptr @H5E_CANTPROTECT_g, align 8, !tbaa !17
  %103 = call i32 (ptr, ptr, i32, i64, i64, ptr, ...) @H5E_printf_stack(ptr noundef @.str, ptr noundef @__func__.H5EA_get, i32 noundef 742, i64 noundef %101, i64 noundef %102, ptr noundef @.str.4)
  br label %104

104:                                              ; preds = %100
  br label %105

105:                                              ; preds = %104
  store i8 1, ptr %12, align 1, !tbaa !13
  %106 = load i8, ptr %12, align 1, !tbaa !13, !range !15, !noundef !16
  %107 = trunc i8 %106 to i1
  %108 = zext i1 %107 to i8
  store i8 %108, ptr %12, align 1, !tbaa !13
  br label %109

109:                                              ; preds = %105
  br label %110

110:                                              ; preds = %109
  br label %111

111:                                              ; preds = %110
  store i32 -1, ptr %11, align 4, !tbaa !43
  store i32 10, ptr %15, align 4
  br label %168

112:                                              ; No predecessors!
  br label %113

113:                                              ; preds = %112
  br label %114

114:                                              ; preds = %113
  br label %115

115:                                              ; preds = %114
  br label %116

116:                                              ; preds = %115, %87
  %117 = load ptr, ptr %9, align 8, !tbaa !10
  %118 = icmp eq ptr null, %117
  br i1 %118, label %119, label %149

119:                                              ; preds = %116
  %120 = load ptr, ptr %8, align 8, !tbaa !19
  %121 = getelementptr inbounds nuw %struct.H5EA_hdr_t, ptr %120, i32 0, i32 1
  %122 = getelementptr inbounds nuw %struct.H5EA_create_t, ptr %121, i32 0, i32 0
  %123 = load ptr, ptr %122, align 8, !tbaa !50
  %124 = getelementptr inbounds nuw %struct.H5EA_class_t, ptr %123, i32 0, i32 5
  %125 = load ptr, ptr %124, align 8, !tbaa !93
  %126 = load ptr, ptr %7, align 8, !tbaa !10
  %127 = call i32 %125(ptr noundef %126, i64 noundef 1)
  %128 = icmp slt i32 %127, 0
  br i1 %128, label %129, label %148

129:                                              ; preds = %119
  br label %130

130:                                              ; preds = %129
  br label %131

131:                                              ; preds = %130
  br label %132

132:                                              ; preds = %131
  %133 = load i64, ptr @H5E_EARRAY_g, align 8, !tbaa !17
  %134 = load i64, ptr @H5E_CANTSET_g, align 8, !tbaa !17
  %135 = call i32 (ptr, ptr, i32, i64, i64, ptr, ...) @H5E_printf_stack(ptr noundef @.str, ptr noundef @__func__.H5EA_get, i32 noundef 748, i64 noundef %133, i64 noundef %134, ptr noundef @.str.7)
  br label %136

136:                                              ; preds = %132
  br label %137

137:                                              ; preds = %136
  store i8 1, ptr %12, align 1, !tbaa !13
  %138 = load i8, ptr %12, align 1, !tbaa !13, !range !15, !noundef !16
  %139 = trunc i8 %138 to i1
  %140 = zext i1 %139 to i8
  store i8 %140, ptr %12, align 1, !tbaa !13
  br label %141

141:                                              ; preds = %137
  br label %142

142:                                              ; preds = %141
  br label %143

143:                                              ; preds = %142
  store i32 -1, ptr %11, align 4, !tbaa !43
  store i32 10, ptr %15, align 4
  br label %168

144:                                              ; No predecessors!
  br label %145

145:                                              ; preds = %144
  br label %146

146:                                              ; preds = %145
  br label %147

147:                                              ; preds = %146
  br label %148

148:                                              ; preds = %147, %119
  br label %167

149:                                              ; preds = %116
  %150 = load ptr, ptr %7, align 8, !tbaa !10
  %151 = load ptr, ptr %13, align 8, !tbaa !48
  %152 = load ptr, ptr %8, align 8, !tbaa !19
  %153 = getelementptr inbounds nuw %struct.H5EA_hdr_t, ptr %152, i32 0, i32 1
  %154 = getelementptr inbounds nuw %struct.H5EA_create_t, ptr %153, i32 0, i32 0
  %155 = load ptr, ptr %154, align 8, !tbaa !50
  %156 = getelementptr inbounds nuw %struct.H5EA_class_t, ptr %155, i32 0, i32 2
  %157 = load i64, ptr %156, align 8, !tbaa !51
  %158 = load i64, ptr %14, align 8, !tbaa !17
  %159 = mul i64 %157, %158
  %160 = getelementptr inbounds nuw i8, ptr %151, i64 %159
  %161 = load ptr, ptr %8, align 8, !tbaa !19
  %162 = getelementptr inbounds nuw %struct.H5EA_hdr_t, ptr %161, i32 0, i32 1
  %163 = getelementptr inbounds nuw %struct.H5EA_create_t, ptr %162, i32 0, i32 0
  %164 = load ptr, ptr %163, align 8, !tbaa !50
  %165 = getelementptr inbounds nuw %struct.H5EA_class_t, ptr %164, i32 0, i32 2
  %166 = load i64, ptr %165, align 8, !tbaa !51
  call void @llvm.memcpy.p0.p0.i64(ptr align 1 %150, ptr align 1 %160, i64 %166, i1 false)
  br label %167

167:                                              ; preds = %149, %148
  store i32 0, ptr %15, align 4
  br label %168

168:                                              ; preds = %143, %111, %167
  call void @llvm.lifetime.end.p0(i64 8, ptr %14) #6
  call void @llvm.lifetime.end.p0(i64 8, ptr %13) #6
  %169 = load i32, ptr %15, align 4
  switch i32 %169, label %199 [
    i32 0, label %170
    i32 10, label %172
  ]

170:                                              ; preds = %168
  br label %171

171:                                              ; preds = %170, %86
  br label %172

172:                                              ; preds = %171, %168, %81
  %173 = load ptr, ptr %9, align 8, !tbaa !10
  %174 = icmp ne ptr %173, null
  br i1 %174, label %175, label %196

175:                                              ; preds = %172
  %176 = load ptr, ptr %10, align 8, !tbaa !10
  %177 = load ptr, ptr %9, align 8, !tbaa !10
  %178 = call i32 %176(ptr noundef %177, i32 noundef 0)
  %179 = icmp slt i32 %178, 0
  br i1 %179, label %180, label %196

180:                                              ; preds = %175
  br label %181

181:                                              ; preds = %180
  br label %182

182:                                              ; preds = %181
  br label %183

183:                                              ; preds = %182
  %184 = load i64, ptr @H5E_EARRAY_g, align 8, !tbaa !17
  %185 = load i64, ptr @H5E_CANTUNPROTECT_g, align 8, !tbaa !17
  %186 = call i32 (ptr, ptr, i32, i64, i64, ptr, ...) @H5E_printf_stack(ptr noundef @.str, ptr noundef @__func__.H5EA_get, i32 noundef 759, i64 noundef %184, i64 noundef %185, ptr noundef @.str.6)
  br label %187

187:                                              ; preds = %183
  br label %188

188:                                              ; preds = %187
  store i8 1, ptr %12, align 1, !tbaa !13
  %189 = load i8, ptr %12, align 1, !tbaa !13, !range !15, !noundef !16
  %190 = trunc i8 %189 to i1
  %191 = zext i1 %190 to i8
  store i8 %191, ptr %12, align 1, !tbaa !13
  br label %192

192:                                              ; preds = %188
  br label %193

193:                                              ; preds = %192
  store i32 -1, ptr %11, align 4, !tbaa !43
  br label %194

194:                                              ; preds = %193
  br label %195

195:                                              ; preds = %194
  br label %196

196:                                              ; preds = %195, %175, %172
  br label %197

197:                                              ; preds = %196, %41
  %198 = load i32, ptr %11, align 4, !tbaa !43
  store i32 %198, ptr %4, align 4
  store i32 1, ptr %15, align 4
  br label %199

199:                                              ; preds = %197, %168
  call void @llvm.lifetime.end.p0(i64 1, ptr %12) #6
  call void @llvm.lifetime.end.p0(i64 4, ptr %11) #6
  call void @llvm.lifetime.end.p0(i64 8, ptr %10) #6
  call void @llvm.lifetime.end.p0(i64 8, ptr %9) #6
  call void @llvm.lifetime.end.p0(i64 8, ptr %8) #6
  %200 = load i32, ptr %4, align 4
  ret i32 %200
}