; Function Attrs: nounwind uwtable
define range(i32 -1, 1) i32 @H5EA_get(ptr noundef readonly captures(none) %0, i64 noundef %1, ptr noundef %2) local_unnamed_addr #0 {
  %4 = alloca ptr, align 8
  %5 = alloca ptr, align 8
  %6 = alloca ptr, align 8
  %7 = alloca i64, align 8
  %8 = load ptr, ptr %0, align 8, !tbaa !34
  call void @llvm.lifetime.start.p0(i64 8, ptr nonnull %4) #5
  store ptr null, ptr %4, align 8, !tbaa !41
  call void @llvm.lifetime.start.p0(i64 8, ptr nonnull %5) #5
  store ptr null, ptr %5, align 8, !tbaa !41
  %9 = load i8, ptr @H5EA_init_g, align 1, !tbaa !3, !range !7, !noundef !8
  %10 = trunc nuw i8 %9 to i1
  %11 = load i8, ptr @H5_libterm_g, align 1, !range !7
  %12 = trunc nuw i8 %11 to i1
  %13 = select i1 %10, i1 true, i1 %12
  br i1 %13, label %14, label %.thread, !prof !9

.thread:                                          ; preds = %3
  store i8 1, ptr @H5EA_init_g, align 1, !tbaa !3
  br label %17

14:                                               ; preds = %3
  %15 = xor i1 %12, true
  %16 = select i1 %10, i1 true, i1 %15
  br i1 %16, label %17, label %.thread26, !prof !10

17:                                               ; preds = %.thread, %14
  %18 = getelementptr inbounds nuw i8, ptr %8, i64 328
  %19 = load i64, ptr %18, align 8, !tbaa !40
  %.not = icmp ult i64 %1, %19
  br i1 %.not, label %31, label %20

20:                                               ; preds = %17
  %21 = getelementptr inbounds nuw i8, ptr %8, i64 248
  %22 = load ptr, ptr %21, align 8, !tbaa !44
  %23 = getelementptr inbounds nuw i8, ptr %22, i64 40
  %24 = load ptr, ptr %23, align 8, !tbaa !80
  %25 = tail call i32 %24(ptr noundef %2, i64 noundef 1) #5
  %26 = icmp slt i32 %25, 0
  br i1 %26, label %27, label %.thread26

27:                                               ; preds = %20
  %28 = load i64, ptr @H5E_EARRAY_g, align 8, !tbaa !11
  %29 = load i64, ptr @H5E_CANTSET_g, align 8, !tbaa !11
  %30 = tail call i32 (ptr, ptr, i32, i64, i64, ptr, ...) @H5E_printf_stack(ptr noundef nonnull @.str, ptr noundef nonnull @__func__.H5EA_get, i32 noundef 730, i64 noundef %28, i64 noundef %29, ptr noundef nonnull @.str.7) #5
  br label %.thread26

31:                                               ; preds = %17
  call void @llvm.lifetime.start.p0(i64 8, ptr nonnull %6) #5
  call void @llvm.lifetime.start.p0(i64 8, ptr nonnull %7) #5
  %32 = getelementptr inbounds nuw i8, ptr %0, i64 8
  %33 = load ptr, ptr %32, align 8, !tbaa !37
  %34 = getelementptr inbounds nuw i8, ptr %8, i64 384
  store ptr %33, ptr %34, align 8, !tbaa !38
  %35 = call fastcc i32 @H5EA__lookup_elmt(ptr noundef nonnull %0, i64 noundef %1, i1 noundef zeroext false, i32 noundef 128, ptr noundef %4, ptr noundef %6, ptr noundef %7, ptr noundef %5)
  %36 = icmp slt i32 %35, 0
  br i1 %36, label %59, label %37

37:                                               ; preds = %31
  %38 = load ptr, ptr %4, align 8, !tbaa !41
  %39 = icmp eq ptr %38, null
  br i1 %39, label %40, label %.thread34

40:                                               ; preds = %37
  %41 = getelementptr inbounds nuw i8, ptr %8, i64 248
  %42 = load ptr, ptr %41, align 8, !tbaa !44
  %43 = getelementptr inbounds nuw i8, ptr %42, i64 40
  %44 = load ptr, ptr %43, align 8, !tbaa !80
  %45 = tail call i32 %44(ptr noundef %2, i64 noundef 1) #5
  %46 = icmp slt i32 %45, 0
  br i1 %46, label %47, label %.thread30

47:                                               ; preds = %40
  %48 = load i64, ptr @H5E_EARRAY_g, align 8, !tbaa !11
  %49 = load i64, ptr @H5E_CANTSET_g, align 8, !tbaa !11
  %50 = tail call i32 (ptr, ptr, i32, i64, i64, ptr, ...) @H5E_printf_stack(ptr noundef nonnull @.str, ptr noundef nonnull @__func__.H5EA_get, i32 noundef 748, i64 noundef %48, i64 noundef %49, ptr noundef nonnull @.str.7) #5
  br label %.thread30

.thread34:                                        ; preds = %37
  %51 = load ptr, ptr %6, align 8, !tbaa !42
  %52 = getelementptr inbounds nuw i8, ptr %8, i64 248
  %53 = load ptr, ptr %52, align 8, !tbaa !44
  %54 = getelementptr inbounds nuw i8, ptr %53, i64 16
  %55 = load i64, ptr %54, align 8, !tbaa !45
  %56 = load i64, ptr %7, align 8, !tbaa !11
  %57 = mul i64 %56, %55
  %58 = getelementptr inbounds nuw i8, ptr %51, i64 %57
  tail call void @llvm.memcpy.p0.p0.i64(ptr align 1 %2, ptr align 1 %58, i64 %55, i1 false)
  call void @llvm.lifetime.end.p0(i64 8, ptr nonnull %7) #5
  call void @llvm.lifetime.end.p0(i64 8, ptr nonnull %6) #5
  br label %63

.thread30:                                        ; preds = %47, %40
  %.2.ph = phi i32 [ 0, %40 ], [ -1, %47 ]
  call void @llvm.lifetime.end.p0(i64 8, ptr nonnull %7) #5
  call void @llvm.lifetime.end.p0(i64 8, ptr nonnull %6) #5
  br label %.thread26

59:                                               ; preds = %31
  %60 = load i64, ptr @H5E_EARRAY_g, align 8, !tbaa !11
  %61 = load i64, ptr @H5E_CANTPROTECT_g, align 8, !tbaa !11
  %62 = tail call i32 (ptr, ptr, i32, i64, i64, ptr, ...) @H5E_printf_stack(ptr noundef nonnull @.str, ptr noundef nonnull @__func__.H5EA_get, i32 noundef 742, i64 noundef %60, i64 noundef %61, ptr noundef nonnull @.str.4) #5
  %.pre.pre = load ptr, ptr %4, align 8, !tbaa !41
  call void @llvm.lifetime.end.p0(i64 8, ptr nonnull %7) #5
  call void @llvm.lifetime.end.p0(i64 8, ptr nonnull %6) #5
  %.not24 = icmp eq ptr %.pre.pre, null
  br i1 %.not24, label %.thread26, label %63

63:                                               ; preds = %.thread34, %59
  %.239 = phi i32 [ 0, %.thread34 ], [ -1, %59 ]
  %.pre38 = phi ptr [ %38, %.thread34 ], [ %.pre.pre, %59 ]
  %64 = load ptr, ptr %5, align 8, !tbaa !41
  %65 = tail call i32 %64(ptr noundef nonnull %.pre38, i32 noundef 0) #5
  %66 = icmp slt i32 %65, 0
  br i1 %66, label %67, label %.thread26

67:                                               ; preds = %63
  %68 = load i64, ptr @H5E_EARRAY_g, align 8, !tbaa !11
  %69 = load i64, ptr @H5E_CANTUNPROTECT_g, align 8, !tbaa !11
  %70 = tail call i32 (ptr, ptr, i32, i64, i64, ptr, ...) @H5E_printf_stack(ptr noundef nonnull @.str, ptr noundef nonnull @__func__.H5EA_get, i32 noundef 759, i64 noundef %68, i64 noundef %69, ptr noundef nonnull @.str.6) #5
  br label %.thread26

.thread26:                                        ; preds = %20, %27, %.thread30, %14, %67, %63, %59
  %.021 = phi i32 [ -1, %67 ], [ %.239, %63 ], [ -1, %59 ], [ 0, %14 ], [ %.2.ph, %.thread30 ], [ 0, %20 ], [ -1, %27 ]
  call void @llvm.lifetime.end.p0(i64 8, ptr nonnull %5) #5
  call void @llvm.lifetime.end.p0(i64 8, ptr nonnull %4) #5
  ret i32 %.021
}